target datalayout = "e-m:e-p270:32:32-p271:32:32-p272:64:64-i64:64-i128:128-f80:128-n8:16:32:64-S128"
target triple = "x86_64-pc-linux-gnu"

%class.MemoryFileTracker = type { %class.NativeCallStackStorage, %class.GrowableArrayCHeap.3 }
%class.NativeCallStackStorage = type { %class.ArrayWithFreeList, i32, ptr, %class.GrowableArrayCHeap.0, i8, %class.NativeCallStack }
%class.ArrayWithFreeList = type <{ %class.GrowableArrayCHeap, i32, [4 x i8] }>
%class.GrowableArrayCHeap = type { %class.GrowableArrayWithAllocator }
%class.GrowableArrayWithAllocator = type { %class.GrowableArrayView }
%class.GrowableArrayView = type { %class.GrowableArrayBase, ptr }
%class.GrowableArrayBase = type { i32, i32 }
%class.GrowableArrayCHeap.0 = type { %class.GrowableArrayWithAllocator.1 }
%class.GrowableArrayWithAllocator.1 = type { %class.GrowableArrayView.2 }
%class.GrowableArrayView.2 = type { %class.GrowableArrayBase, ptr }
%class.NativeCallStack = type { [4 x ptr] }
%class.GrowableArrayCHeap.3 = type { %class.GrowableArrayWithAllocator.4 }
%class.GrowableArrayWithAllocator.4 = type { %class.GrowableArrayView.5 }
%class.GrowableArrayView.5 = type { %class.GrowableArrayBase, ptr }
%"class.MemoryFileTracker::MemoryFile" = type { ptr, %class.VirtualMemorySnapshot, %class.VMATree }
%class.VirtualMemorySnapshot = type { [28 x %class.VirtualMemory] }
%class.VirtualMemory = type { i64, i64, i64 }
%class.VMATree = type { %class.Treap }
%class.Treap = type <{ %class.TreapCHeapAllocator, [7 x i8], ptr, i64, i32, [4 x i8] }>
%class.TreapCHeapAllocator = type { i8 }

@g_assert_poison = external global ptr, align 8
@.str.6 = private unnamed_addr constant [46 x i8] c"src/hotspot/share/utilities/growableArray.hpp\00", align 1

; Function Attrs: mustprogress nounwind uwtable
define linkonce_odr hidden void @_ZN5TreapImN7VMATree14IntervalChangeENS0_18PositionComparatorE19TreapCHeapAllocatorED2Ev(ptr noundef nonnull align 8 dereferenceable(28) %0) unnamed_addr #1 comdat align 2 {
  %2 = alloca ptr, align 8
  store ptr %0, ptr %2, align 8
  %3 = load ptr, ptr %2, align 8
  call void @_ZN5TreapImN7VMATree14IntervalChangeENS0_18PositionComparatorE19TreapCHeapAllocatorE10remove_allEv(ptr noundef nonnull align 8 dereferenceable(28) %3)
  ret void
}

; Function Attrs: mustprogress nounwind uwtable
define linkonce_odr hidden void @_ZN17GrowableArrayViewIPN17MemoryFileTracker10MemoryFileEE9remove_atEi(ptr noundef nonnull align 8 dereferenceable(16) %0, i32 noundef %1) #1 comdat align 2 {
  %3 = alloca ptr, align 8
  %4 = alloca i32, align 4
  %5 = alloca i32, align 4
  store ptr %0, ptr %3, align 8
  store i32 %1, ptr %4, align 4
  %6 = load ptr, ptr %3, align 8
  %7 = load i32, ptr %4, align 4
  %8 = add nsw i32 %7, 1
  store i32 %8, ptr %5, align 4
  br label %9

9:                                                ; preds = %27, %2
  %10 = load i32, ptr %5, align 4
  %11 = getelementptr inbounds %class.GrowableArrayBase, ptr %6, i32 0, i32 0
  %12 = load i32, ptr %11, align 8
  %13 = icmp slt i32 %10, %12
  br i1 %13, label %14, label %30

14:                                               ; preds = %9
  %15 = getelementptr inbounds %class.GrowableArrayView.5, ptr %6, i32 0, i32 1
  %16 = load ptr, ptr %15, align 8
  %17 = load i32, ptr %5, align 4
  %18 = sext i32 %17 to i64
  %19 = getelementptr inbounds ptr, ptr %16, i64 %18
  %20 = load ptr, ptr %19, align 8
  %21 = getelementptr inbounds %class.GrowableArrayView.5, ptr %6, i32 0, i32 1
  %22 = load ptr, ptr %21, align 8
  %23 = load i32, ptr %5, align 4
  %24 = sub nsw i32 %23, 1
  %25 = sext i32 %24 to i64
  %26 = getelementptr inbounds ptr, ptr %22, i64 %25
  store ptr %20, ptr %26, align 8
  br label %27

27:                                               ; preds = %14
  %28 = load i32, ptr %5, align 4
  %29 = add nsw i32 %28, 1
  store i32 %29, ptr %5, align 4
  br label %9, !llvm.loop !26

30:                                               ; preds = %9
  %31 = getelementptr inbounds %class.GrowableArrayBase, ptr %6, i32 0, i32 0
  %32 = load i32, ptr %31, align 8
  %33 = add nsw i32 %32, -1
  store i32 %33, ptr %31, align 8
  ret void
}

; Function Attrs: mustprogress nounwind uwtable
define linkonce_odr hidden void @_ZN12CHeapObjBasedlEPv(ptr noundef %0) #1 comdat align 2 {
  %2 = alloca ptr, align 8
  store ptr %0, ptr %2, align 8
  %3 = load ptr, ptr %2, align 8
  call void @_Z8FreeHeapPv(ptr noundef %3)
  ret void
}

; Function Attrs: mustprogress nounwind uwtable
define linkonce_odr hidden void @_ZN7VMATreeD2Ev(ptr noundef nonnull align 8 dereferenceable(32) %0) unnamed_addr #1 comdat align 2 {
  %2 = alloca ptr, align 8
  store ptr %0, ptr %2, align 8
  %3 = load ptr, ptr %2, align 8
  %4 = getelementptr inbounds %class.VMATree, ptr %3, i32 0, i32 0
  call void @_ZN5TreapImN7VMATree14IntervalChangeENS0_18PositionComparatorE19TreapCHeapAllocatorED2Ev(ptr noundef nonnull align 8 dereferenceable(28) %4) #7
  ret void
}

; Function Attrs: mustprogress nounwind uwtable
define linkonce_odr hidden noundef zeroext i1 @_ZN17GrowableArrayViewIPN17MemoryFileTracker10MemoryFileEE18remove_if_existingERKS2_(ptr noundef nonnull align 8 dereferenceable(16) %0, ptr noundef nonnull align 8 dereferenceable(8) %1) #1 comdat align 2 {
  %3 = alloca i1, align 1
  %4 = alloca ptr, align 8
  %5 = alloca ptr, align 8
  %6 = alloca i32, align 4
  store ptr %0, ptr %4, align 8
  store ptr %1, ptr %5, align 8
  %7 = load ptr, ptr %4, align 8
  store i32 0, ptr %6, align 4
  br label %8

8:                                                ; preds = %26, %2
  %9 = load i32, ptr %6, align 4
  %10 = getelementptr inbounds %class.GrowableArrayBase, ptr %7, i32 0, i32 0
  %11 = load i32, ptr %10, align 8
  %12 = icmp slt i32 %9, %11
  br i1 %12, label %13, label %29

13:                                               ; preds = %8
  %14 = getelementptr inbounds %class.GrowableArrayView.5, ptr %7, i32 0, i32 1
  %15 = load ptr, ptr %14, align 8
  %16 = load i32, ptr %6, align 4
  %17 = sext i32 %16 to i64
  %18 = getelementptr inbounds ptr, ptr %15, i64 %17
  %19 = load ptr, ptr %18, align 8
  %20 = load ptr, ptr %5, align 8
  %21 = load ptr, ptr %20, align 8
  %22 = icmp eq ptr %19, %21
  br i1 %22, label %23, label %25

23:                                               ; preds = %13
  %24 = load i32, ptr %6, align 4
  call void @_ZN17GrowableArrayViewIPN17MemoryFileTracker10MemoryFileEE9remove_atEi(ptr noundef nonnull align 8 dereferenceable(16) %7, i32 noundef %24)
  store i1 true, ptr %3, align 1
  br label %30

25:                                               ; preds = %13
  br label %26

26:                                               ; preds = %25
  %27 = load i32, ptr %6, align 4
  %28 = add nsw i32 %27, 1
  store i32 %28, ptr %6, align 4
  br label %8, !llvm.loop !25

29:                                               ; preds = %8
  store i1 false, ptr %3, align 1
  br label %30

30:                                               ; preds = %29, %23
  %31 = load i1, ptr %3, align 1
  ret i1 %31
}

; Function Attrs: mustprogress nounwind uwtable
define linkonce_odr hidden void @_ZN8CHeapObjIL8MEMFLAGS12EEdlEPv(ptr noundef %0) #1 comdat align 2 {
  %2 = alloca ptr, align 8
  store ptr %0, ptr %2, align 8
  %3 = load ptr, ptr %2, align 8
  call void @_ZN12CHeapObjBasedlEPv(ptr noundef %3) #7
  ret void
}

; Function Attrs: mustprogress nounwind uwtable
define linkonce_odr hidden void @_ZN17MemoryFileTracker10MemoryFileD2Ev(ptr noundef nonnull align 8 dereferenceable(712) %0) unnamed_addr #1 comdat align 2 {
  %2 = alloca ptr, align 8
  store ptr %0, ptr %2, align 8
  %3 = load ptr, ptr %2, align 8
  %4 = getelementptr inbounds %"class.MemoryFileTracker::MemoryFile", ptr %3, i32 0, i32 2
  call void @_ZN7VMATreeD2Ev(ptr noundef nonnull align 8 dereferenceable(32) %4) #7
  ret void
}

; Function Attrs: mustprogress nounwind uwtable
define linkonce_odr hidden void @_ZN17GrowableArrayViewIPN17MemoryFileTracker10MemoryFileEE6removeERKS2_(ptr noundef nonnull align 8 dereferenceable(16) %0, ptr noundef nonnull align 8 dereferenceable(8) %1) #1 comdat align 2 {
  %3 = alloca ptr, align 8
  %4 = alloca ptr, align 8
  %5 = alloca i8, align 1
  store ptr %0, ptr %3, align 8
  store ptr %1, ptr %4, align 8
  %6 = load ptr, ptr %3, align 8
  %7 = load ptr, ptr %4, align 8
  %8 = call noundef zeroext i1 @_ZN17GrowableArrayViewIPN17MemoryFileTracker10MemoryFileEE18remove_if_existingERKS2_(ptr noundef nonnull align 8 dereferenceable(16) %6, ptr noundef nonnull align 8 dereferenceable(8) %7)
  %9 = zext i1 %8 to i8
  store i8 %9, ptr %5, align 1
  %10 = load i8, ptr %5, align 1
  %11 = trunc i8 %10 to i1
  br i1 %11, label %12, label %13

12:                                               ; preds = %2
  br label %16

13:                                               ; preds = %2
  br label %14

14:                                               ; preds = %13
  %15 = load ptr, ptr @g_assert_poison, align 8
  store i8 88, ptr %15, align 1
  call void @_Z28report_should_not_reach_herePKci(ptr noundef @.str.6, i32 noundef 256) #8
  unreachable

16:                                               ; preds = %12
  ret void
}

; Function Attrs: mustprogress nounwind uwtable
define hidden void @_ZN17MemoryFileTracker9free_fileEPNS_10MemoryFileE(ptr noundef nonnull align 8 dereferenceable(112) %0, ptr noundef %1) #1 align 2 {
  %3 = alloca ptr, align 8
  %4 = alloca ptr, align 8
  store ptr %0, ptr %3, align 8
  store ptr %1, ptr %4, align 8
  %5 = load ptr, ptr %3, align 8
  %6 = load ptr, ptr %4, align 8
  %7 = icmp eq ptr %6, null
  br i1 %7, label %8, label %9

8:                                                ; preds = %2
  br label %14

9:                                                ; preds = %2
  %10 = getelementptr inbounds %class.MemoryFileTracker, ptr %5, i32 0, i32 1
  call void @_ZN17GrowableArrayViewIPN17MemoryFileTracker10MemoryFileEE6removeERKS2_(ptr noundef nonnull align 8 dereferenceable(16) %10, ptr noundef nonnull align 8 dereferenceable(8) %4)
  %11 = load ptr, ptr %4, align 8
  %12 = icmp eq ptr %11, null
  br i1 %12, label %14, label %13

13:                                               ; preds = %9
  call void @_ZN17MemoryFileTracker10MemoryFileD2Ev(ptr noundef nonnull align 8 dereferenceable(712) %11) #7
  call void @_ZN8CHeapObjIL8MEMFLAGS12EEdlEPv(ptr noundef %11) #7
  br label %14

14:                                               ; preds = %13, %9, %8
  ret void
}